; Function Attrs: mustprogress nofree norecurse nosync nounwind willreturn memory(read, inaccessiblemem: none) uwtable
define dso_local noundef ptr @_ZN4Luau20DataFlowGraphBuilder12currentScopeEv(ptr noundef nonnull readonly align 8 captures(none) dereferenceable(336) %0) local_unnamed_addr #6 align 2 {
  %2 = getelementptr inbounds nuw i8, ptr %0, i64 264
  %3 = load ptr, ptr %2, align 8, !tbaa !197
  %4 = getelementptr inbounds nuw i8, ptr %0, i64 272
  %5 = load ptr, ptr %4, align 8, !tbaa !197
  %6 = icmp eq ptr %3, %5
  br i1 %6, label %10, label %7

7:                                                ; preds = %1
  %8 = getelementptr inbounds i8, ptr %5, i64 -8
  %9 = load ptr, ptr %8, align 8, !tbaa !148
  br label %10

10:                                               ; preds = %1, %7
  %.0 = phi ptr [ %9, %7 ], [ null, %1 ]
  ret ptr %.0
}